; Function Attrs: mustprogress uwtable
define hidden void @_ZN5ceres8internal10CudaVector7SetZeroEv(ptr nocapture noundef nonnull readonly align 8 dereferenceable(48) %0) local_unnamed_addr #0 align 2 personality ptr @__gxx_personality_v0 {
  %2 = alloca %"class.google::LogMessageFatal", align 8
  %3 = load i32, ptr %0, align 8
  %4 = icmp eq i32 %3, 0
  br i1 %4, label %19, label %5

5:                                                ; preds = %1
  %6 = getelementptr inbounds i8, ptr %0, i64 16
  %7 = load ptr, ptr %6, align 8
  %.not = icmp eq ptr %7, null
  br i1 %.not, label %8, label %.critedge

8:                                                ; preds = %5
  call void @_ZN6google15LogMessageFatalC1EPKci(ptr noundef nonnull align 8 dereferenceable(96) %2, ptr noundef nonnull @.str.3, i32 noundef 142)
  %9 = invoke noundef nonnull align 8 dereferenceable(8) ptr @_ZN6google10LogMessage6streamEv(ptr noundef nonnull align 8 dereferenceable(96) %2)
          to label %10 unwind label %13

10:                                               ; preds = %8
  %11 = invoke noundef nonnull align 8 dereferenceable(8) ptr @_ZStlsISt11char_traitsIcEERSt13basic_ostreamIcT_ES5_PKc(ptr noundef nonnull align 8 dereferenceable(8) %9, ptr noundef nonnull @.str.12)
          to label %12 unwind label %13

12:                                               ; preds = %10
  call void @_ZN6google15LogMessageFatalD1Ev(ptr noundef nonnull align 8 dereferenceable(96) %2) #12
  unreachable

13:                                               ; preds = %10, %8
  %14 = landingpad { ptr, i32 }
          cleanup
  call void @_ZN6google15LogMessageFatalD1Ev(ptr noundef nonnull align 8 dereferenceable(96) %2) #12
  unreachable

.critedge:                                        ; preds = %5
  %15 = getelementptr inbounds i8, ptr %0, i64 8
  %16 = load ptr, ptr %15, align 8
  %17 = getelementptr inbounds i8, ptr %16, i64 264
  %18 = load ptr, ptr %17, align 8
  tail call void @_ZN5ceres8internal15CudaSetZeroFP64EPdiP11CUstream_st(ptr noundef nonnull %7, i32 noundef %3, ptr noundef %18)
  br label %19

19:                                               ; preds = %1, %.critedge
  ret void
}